; Function Attrs: cold nounwind optsize uwtable
define void @ff_mpeg_flush(ptr noundef readonly captures(none) %0) local_unnamed_addr #0 {
  %2 = getelementptr inbounds nuw i8, ptr %0, i64 32
  %3 = load ptr, ptr %2, align 8, !tbaa !65
  %4 = getelementptr inbounds nuw i8, ptr %3, i64 1160
  tail call void @ff_mpv_unref_picture(ptr noundef nonnull %4) #10
  %5 = getelementptr inbounds nuw i8, ptr %3, i64 920
  tail call void @ff_mpv_unref_picture(ptr noundef nonnull %5) #10
  %6 = getelementptr inbounds nuw i8, ptr %3, i64 1040
  tail call void @ff_mpv_unref_picture(ptr noundef nonnull %6) #10
  %7 = getelementptr inbounds nuw i8, ptr %3, i64 3352
  store i32 0, ptr %7, align 8, !tbaa !134
  %8 = getelementptr inbounds nuw i8, ptr %3, i64 3348
  store i32 0, ptr %8, align 4, !tbaa !135
  %9 = getelementptr inbounds nuw i8, ptr %3, i64 4080
  store i16 0, ptr %9, align 8, !tbaa !136
  ret void
}